; Function Attrs: mustprogress uwtable
define hidden void @_ZN4cvc58internal6theory4sets17TheorySetsPrivate15fullEffortResetEv(ptr noundef nonnull align 8 captures(none) dereferenceable(744) initializes((256, 257), (260, 264), (681, 682), (683, 685)) %0) local_unnamed_addr #3 align 2 {
  %2 = getelementptr inbounds nuw i8, ptr %0, i64 256
  store i8 0, ptr %2, align 8, !tbaa !48
  %3 = getelementptr inbounds nuw i8, ptr %0, i64 260
  store i32 24, ptr %3, align 4, !tbaa !100
  %4 = getelementptr inbounds nuw i8, ptr %0, i64 684
  store i8 0, ptr %4, align 4, !tbaa !414
  %5 = getelementptr inbounds nuw i8, ptr %0, i64 683
  store i8 0, ptr %5, align 1, !tbaa !219
  %6 = getelementptr inbounds nuw i8, ptr %0, i64 681
  store i8 0, ptr %6, align 1, !tbaa !411
  %7 = getelementptr inbounds nuw i8, ptr %0, i64 272
  %8 = load ptr, ptr %7, align 8, !tbaa !141
  tail call void @_ZN4cvc58internal6theory4sets11SolverState5resetEv(ptr noundef nonnull align 8 dereferenceable(1448) %8)
  %9 = getelementptr inbounds nuw i8, ptr %0, i64 280
  %10 = load ptr, ptr %9, align 8, !tbaa !171
  tail call void @_ZN4cvc58internal6theory22TheoryInferenceManager5resetEv(ptr noundef nonnull align 8 dereferenceable(240) %10)
  %11 = load ptr, ptr %9, align 8, !tbaa !171
  tail call void @_ZN4cvc58internal6theory24InferenceManagerBuffered18clearPendingLemmasEv(ptr noundef nonnull align 8 dereferenceable(337) %11)
  %12 = getelementptr inbounds nuw i8, ptr %0, i64 672
  %13 = load ptr, ptr %12, align 8, !tbaa !107
  tail call void @_ZN4cvc58internal6theory4sets20CardinalityExtension5resetEv(ptr noundef nonnull align 8 dereferenceable(648) %13)
  ret void
}